; Function Attrs: mustprogress uwtable
define dso_local void @_ZN3net10QuicConfig39SetInitialStreamFlowControlWindowToSendEj(ptr nocapture noundef nonnull writeonly align 8 dereferenceable(600) %this, i32 noundef %window_bytes) local_unnamed_addr #0 align 2 personality ptr @__gxx_personality_v0 {
entry:
  %ref.tmp2 = alloca %"class.logging::LogMessage", align 8
  %cmp = icmp ult i32 %window_bytes, 16384
  br i1 %cmp, label %if.then, label %if.end

if.then:                                          ; preds = %entry
  %call = tail call noundef zeroext i1 @_ZN7logging22ShouldCreateLogMessageEi(i32 noundef 2)
  br i1 %call, label %cond.false, label %if.end

cond.false:                                       ; preds = %if.then
  call void @_ZN7logging10LogMessageC1EPKcii(ptr noundef nonnull align 8 dereferenceable(404) %ref.tmp2, ptr noundef nonnull @.str.2, i32 noundef 562, i32 noundef 2)
  %stream_.i = getelementptr inbounds i8, ptr %ref.tmp2, i64 8
  %call5 = invoke noundef nonnull align 8 dereferenceable(8) ptr @_ZStlsISt11char_traitsIcEERSt13basic_ostreamIcT_ES5_PKc(ptr noundef nonnull align 8 dereferenceable(8) %stream_.i, ptr noundef nonnull @.str.9)
          to label %invoke.cont4 unwind label %lpad

invoke.cont4:                                     ; preds = %cond.false
  %call7 = invoke noundef nonnull align 8 dereferenceable(8) ptr @_ZNSolsEj(ptr noundef nonnull align 8 dereferenceable(8) %call5, i32 noundef %window_bytes)
          to label %invoke.cont6 unwind label %lpad

invoke.cont6:                                     ; preds = %invoke.cont4
  %call9 = invoke noundef nonnull align 8 dereferenceable(8) ptr @_ZStlsISt11char_traitsIcEERSt13basic_ostreamIcT_ES5_PKc(ptr noundef nonnull align 8 dereferenceable(8) %call7, ptr noundef nonnull @.str.10)
          to label %invoke.cont8 unwind label %lpad

invoke.cont8:                                     ; preds = %invoke.cont6
  %call11 = invoke noundef nonnull align 8 dereferenceable(8) ptr @_ZNSolsEj(ptr noundef nonnull align 8 dereferenceable(8) %call9, i32 noundef 16384)
          to label %invoke.cont10 unwind label %lpad

invoke.cont10:                                    ; preds = %invoke.cont8
  %call13 = invoke noundef nonnull align 8 dereferenceable(8) ptr @_ZStlsISt11char_traitsIcEERSt13basic_ostreamIcT_ES5_PKc(ptr noundef nonnull align 8 dereferenceable(8) %call11, ptr noundef nonnull @.str.11)
          to label %cleanup.action unwind label %lpad

cleanup.action:                                   ; preds = %invoke.cont10
  call void @_ZN7logging10LogMessageD1Ev(ptr noundef nonnull align 8 dereferenceable(404) %ref.tmp2) #17
  br label %if.end

lpad:                                             ; preds = %invoke.cont10, %invoke.cont8, %invoke.cont6, %invoke.cont4, %cond.false
  %0 = landingpad { ptr, i32 }
          cleanup
  call void @_ZN7logging10LogMessageD1Ev(ptr noundef nonnull align 8 dereferenceable(404) %ref.tmp2) #17
  resume { ptr, i32 } %0

if.end:                                           ; preds = %cleanup.action, %if.then, %entry
  %window_bytes.addr.0 = phi i32 [ %window_bytes, %entry ], [ 16384, %if.then ], [ 16384, %cleanup.action ]
  %has_send_value_.i = getelementptr inbounds i8, ptr %this, i64 332
  store i8 1, ptr %has_send_value_.i, align 4
  %send_value_.i = getelementptr inbounds i8, ptr %this, i64 328
  store i32 %window_bytes.addr.0, ptr %send_value_.i, align 8
  ret void
}